target datalayout = "e-m:e-p270:32:32-p271:32:32-p272:64:64-i64:64-i128:128-f80:128-n8:16:32:64-S128"
target triple = "x86_64-pc-linux-gnu"

%struct._zend_array = type { %struct._zend_refcounted_h, %union.anon.0, i32, %union.anon.1, i32, i32, i32, i32, i64, ptr }
%struct._zend_refcounted_h = type { i32, %union.anon }
%union.anon = type { i32 }
%union.anon.0 = type { i32 }
%union.anon.1 = type { ptr }
%struct.php_file_globals = type { i32, i64, i8, i64, ptr, ptr, ptr, ptr, ptr, ptr, ptr, i32, %struct.hostent, ptr, i64 }
%struct.hostent = type { ptr, ptr, i32, i32, ptr }
%struct._php_stream_filter_factory = type { ptr }

@stream_filters_hash = internal global %struct._zend_array zeroinitializer, align 8
@file_globals = external global %struct.php_file_globals, align 8
@.str = private unnamed_addr constant [29 x i8] c"Unable to locate filter \22%s\22\00", align 1
@.str.1 = private unnamed_addr constant [39 x i8] c"Unable to create or locate filter \22%s\22\00", align 1

; Function Attrs: nounwind uwtable
define ptr @php_stream_filter_create(ptr noundef %0, ptr noundef %1, i8 noundef zeroext %2) #0 {
  %4 = alloca ptr, align 8
  %5 = alloca ptr, align 8
  %6 = alloca ptr, align 8
  %7 = alloca i64, align 8
  %8 = alloca ptr, align 8
  %9 = alloca ptr, align 8
  %10 = alloca ptr, align 8
  %11 = alloca ptr, align 8
  %12 = alloca i64, align 8
  %13 = alloca ptr, align 8
  %14 = alloca ptr, align 8
  %15 = alloca ptr, align 8
  %16 = alloca i8, align 1
  %17 = alloca ptr, align 8
  %18 = alloca ptr, align 8
  %19 = alloca ptr, align 8
  %20 = alloca i64, align 8
  %21 = alloca ptr, align 8
  %22 = alloca ptr, align 8
  store ptr %0, ptr %14, align 8
  store ptr %1, ptr %15, align 8
  store i8 %2, ptr %16, align 1
  %23 = load ptr, ptr getelementptr inbounds (%struct.php_file_globals, ptr @file_globals, i32 0, i32 9), align 8
  %24 = icmp ne ptr %23, null
  br i1 %24, label %25, label %27

25:                                               ; preds = %3
  %26 = load ptr, ptr getelementptr inbounds (%struct.php_file_globals, ptr @file_globals, i32 0, i32 9), align 8
  br label %28

27:                                               ; preds = %3
  br label %28

28:                                               ; preds = %27, %25
  %29 = phi ptr [ %26, %25 ], [ @stream_filters_hash, %27 ]
  store ptr %29, ptr %17, align 8
  store ptr null, ptr %18, align 8
  store ptr null, ptr %19, align 8
  %30 = load ptr, ptr %14, align 8
  %31 = call i64 @strlen(ptr noundef %30) #11
  store i64 %31, ptr %20, align 8
  %32 = load ptr, ptr %17, align 8
  %33 = load ptr, ptr %14, align 8
  %34 = load i64, ptr %20, align 8
  store ptr %32, ptr %5, align 8
  store ptr %33, ptr %6, align 8
  store i64 %34, ptr %7, align 8
  %35 = load ptr, ptr %5, align 8
  %36 = load ptr, ptr %6, align 8
  %37 = load i64, ptr %7, align 8
  %38 = call ptr @zend_hash_str_find(ptr noundef %35, ptr noundef %36, i64 noundef %37) #12
  store ptr %38, ptr %8, align 8
  %39 = load ptr, ptr %8, align 8
  %40 = icmp ne ptr %39, null
  br i1 %40, label %41, label %47

41:                                               ; preds = %28
  %42 = load ptr, ptr %8, align 8
  %43 = load ptr, ptr %42, align 8
  %44 = icmp ne ptr %43, null
  call void @llvm.assume(i1 %44)
  %45 = load ptr, ptr %8, align 8
  %46 = load ptr, ptr %45, align 8
  store ptr %46, ptr %4, align 8
  br label %48

47:                                               ; preds = %28
  store ptr null, ptr %4, align 8
  br label %48

48:                                               ; preds = %47, %41
  %49 = load ptr, ptr %4, align 8
  store ptr %49, ptr %18, align 8
  %50 = icmp ne ptr null, %49
  br i1 %50, label %51, label %59

51:                                               ; preds = %48
  %52 = load ptr, ptr %18, align 8
  %53 = getelementptr inbounds %struct._php_stream_filter_factory, ptr %52, i32 0, i32 0
  %54 = load ptr, ptr %53, align 8
  %55 = load ptr, ptr %14, align 8
  %56 = load ptr, ptr %15, align 8
  %57 = load i8, ptr %16, align 1
  %58 = call ptr %54(ptr noundef %55, ptr noundef %56, i8 noundef zeroext %57)
  store ptr %58, ptr %19, align 8
  br label %131

59:                                               ; preds = %48
  %60 = load ptr, ptr %14, align 8
  %61 = call ptr @strrchr(ptr noundef %60, i32 noundef 46) #11
  store ptr %61, ptr %21, align 8
  %62 = icmp ne ptr %61, null
  br i1 %62, label %63, label %130

63:                                               ; preds = %59
  %64 = load i64, ptr %20, align 8
  %65 = call noalias ptr @_safe_emalloc(i64 noundef 1, i64 noundef %64, i64 noundef 3)
  store ptr %65, ptr %22, align 8
  %66 = load ptr, ptr %22, align 8
  %67 = load ptr, ptr %14, align 8
  %68 = load i64, ptr %20, align 8
  %69 = add i64 %68, 1
  call void @llvm.memcpy.p0.p0.i64(ptr align 1 %66, ptr align 1 %67, i64 %69, i1 false)
  %70 = load ptr, ptr %22, align 8
  %71 = load ptr, ptr %21, align 8
  %72 = load ptr, ptr %14, align 8
  %73 = ptrtoint ptr %71 to i64
  %74 = ptrtoint ptr %72 to i64
  %75 = sub i64 %73, %74
  %76 = getelementptr inbounds i8, ptr %70, i64 %75
  store ptr %76, ptr %21, align 8
  br label %77

77:                                               ; preds = %124, %63
  %78 = load ptr, ptr %21, align 8
  %79 = icmp ne ptr %78, null
  br i1 %79, label %80, label %84

80:                                               ; preds = %77
  %81 = load ptr, ptr %19, align 8
  %82 = icmp ne ptr %81, null
  %83 = xor i1 %82, true
  br label %84

84:                                               ; preds = %80, %77
  %85 = phi i1 [ false, %77 ], [ %83, %80 ]
  br i1 %85, label %86, label %128

86:                                               ; preds = %84
  %87 = load ptr, ptr %21, align 8
  %88 = getelementptr inbounds i8, ptr %87, i64 0
  %89 = load i8, ptr %88, align 1
  %90 = sext i8 %89 to i32
  %91 = icmp eq i32 %90, 46
  call void @llvm.assume(i1 %91)
  %92 = load ptr, ptr %21, align 8
  %93 = getelementptr inbounds i8, ptr %92, i64 1
  store i8 42, ptr %93, align 1
  %94 = load ptr, ptr %21, align 8
  %95 = getelementptr inbounds i8, ptr %94, i64 2
  store i8 0, ptr %95, align 1
  %96 = load ptr, ptr %17, align 8
  %97 = load ptr, ptr %22, align 8
  %98 = load ptr, ptr %22, align 8
  %99 = call i64 @strlen(ptr noundef %98) #11
  store ptr %96, ptr %10, align 8
  store ptr %97, ptr %11, align 8
  store i64 %99, ptr %12, align 8
  %100 = load ptr, ptr %10, align 8
  %101 = load ptr, ptr %11, align 8
  %102 = load i64, ptr %12, align 8
  %103 = call ptr @zend_hash_str_find(ptr noundef %100, ptr noundef %101, i64 noundef %102) #12
  store ptr %103, ptr %13, align 8
  %104 = load ptr, ptr %13, align 8
  %105 = icmp ne ptr %104, null
  br i1 %105, label %106, label %112

106:                                              ; preds = %86
  %107 = load ptr, ptr %13, align 8
  %108 = load ptr, ptr %107, align 8
  %109 = icmp ne ptr %108, null
  call void @llvm.assume(i1 %109)
  %110 = load ptr, ptr %13, align 8
  %111 = load ptr, ptr %110, align 8
  store ptr %111, ptr %9, align 8
  br label %113

112:                                              ; preds = %86
  store ptr null, ptr %9, align 8
  br label %113

113:                                              ; preds = %112, %106
  %114 = load ptr, ptr %9, align 8
  store ptr %114, ptr %18, align 8
  %115 = icmp ne ptr null, %114
  br i1 %115, label %116, label %124

116:                                              ; preds = %113
  %117 = load ptr, ptr %18, align 8
  %118 = getelementptr inbounds %struct._php_stream_filter_factory, ptr %117, i32 0, i32 0
  %119 = load ptr, ptr %118, align 8
  %120 = load ptr, ptr %14, align 8
  %121 = load ptr, ptr %15, align 8
  %122 = load i8, ptr %16, align 1
  %123 = call ptr %119(ptr noundef %120, ptr noundef %121, i8 noundef zeroext %122)
  store ptr %123, ptr %19, align 8
  br label %124

124:                                              ; preds = %116, %113
  %125 = load ptr, ptr %21, align 8
  store i8 0, ptr %125, align 1
  %126 = load ptr, ptr %22, align 8
  %127 = call ptr @strrchr(ptr noundef %126, i32 noundef 46) #11
  store ptr %127, ptr %21, align 8
  br label %77

128:                                              ; preds = %84
  %129 = load ptr, ptr %22, align 8
  call void @_efree(ptr noundef %129)
  br label %130

130:                                              ; preds = %128, %59
  br label %131

131:                                              ; preds = %130, %51
  %132 = load ptr, ptr %19, align 8
  %133 = icmp eq ptr %132, null
  br i1 %133, label %134, label %142

134:                                              ; preds = %131
  %135 = load ptr, ptr %18, align 8
  %136 = icmp eq ptr %135, null
  br i1 %136, label %137, label %139

137:                                              ; preds = %134
  %138 = load ptr, ptr %14, align 8
  call void (ptr, i32, ptr, ...) @php_error_docref(ptr noundef null, i32 noundef 2, ptr noundef @.str, ptr noundef %138)
  br label %141

139:                                              ; preds = %134
  %140 = load ptr, ptr %14, align 8
  call void (ptr, i32, ptr, ...) @php_error_docref(ptr noundef null, i32 noundef 2, ptr noundef @.str.1, ptr noundef %140)
  br label %141

141:                                              ; preds = %139, %137
  br label %142

142:                                              ; preds = %141, %131
  %143 = load ptr, ptr %19, align 8
  ret ptr %143
}