; Function Attrs: nounwind uwtable
define ptr @php_stream_filter_create(ptr noundef %0, ptr noundef %1, i8 noundef zeroext %2) local_unnamed_addr #2 {
  %4 = load ptr, ptr getelementptr inbounds (%struct.php_file_globals, ptr @file_globals, i64 0, i32 9), align 8
  %.not = icmp eq ptr %4, null
  %5 = select i1 %.not, ptr @stream_filters_hash, ptr %4
  %6 = tail call i64 @strlen(ptr noundef nonnull dereferenceable(1) %0) #13
  %7 = tail call ptr @zend_hash_str_find(ptr noundef nonnull %5, ptr noundef %0, i64 noundef %6) #14
  %.not57 = icmp eq ptr %7, null
  br i1 %.not57, label %8, label %.thread

8:                                                ; preds = %3
  %9 = tail call ptr @strrchr(ptr noundef nonnull dereferenceable(1) %0, i32 noundef 46) #13
  %.not59 = icmp eq ptr %9, null
  br i1 %.not59, label %.sink.split, label %10

10:                                               ; preds = %8
  %11 = tail call noalias ptr @_safe_emalloc(i64 noundef 1, i64 noundef %6, i64 noundef 3) #14
  %12 = add i64 %6, 1
  tail call void @llvm.memcpy.p0.p0.i64(ptr align 1 %11, ptr align 1 %0, i64 %12, i1 false)
  %.not81 = icmp eq ptr %11, null
  br i1 %.not81, label %.thread90, label %.lr.ph.preheader

.thread90:                                        ; preds = %10
  tail call void @_efree(ptr noundef %11) #14
  br label %.sink.split

.lr.ph.preheader:                                 ; preds = %10
  %13 = ptrtoint ptr %9 to i64
  %14 = ptrtoint ptr %0 to i64
  %15 = sub i64 %13, %14
  %16 = getelementptr inbounds i8, ptr %11, i64 %15
  br label %.lr.ph

.lr.ph:                                           ; preds = %.lr.ph.preheader, %.thread65
  %.04979 = phi ptr [ %27, %.thread65 ], [ %16, %.lr.ph.preheader ]
  %17 = load i8, ptr %.04979, align 1
  %18 = icmp eq i8 %17, 46
  tail call void @llvm.assume(i1 %18)
  %19 = getelementptr inbounds i8, ptr %.04979, i64 1
  store i8 42, ptr %19, align 1
  %20 = getelementptr inbounds i8, ptr %.04979, i64 2
  store i8 0, ptr %20, align 1
  %21 = tail call i64 @strlen(ptr noundef nonnull dereferenceable(1) %11) #13
  %22 = tail call ptr @zend_hash_str_find(ptr noundef nonnull %5, ptr noundef nonnull %11, i64 noundef %21) #14
  %.not61 = icmp eq ptr %22, null
  br i1 %.not61, label %.thread65, label %23

23:                                               ; preds = %.lr.ph
  %24 = load ptr, ptr %22, align 8, !nonnull !4, !noundef !4
  %25 = load ptr, ptr %24, align 8
  %26 = tail call ptr %25(ptr noundef %0, ptr noundef %1, i8 noundef zeroext %2) #14
  br label %.thread65

.thread65:                                        ; preds = %.lr.ph, %23
  %.1 = phi ptr [ %26, %23 ], [ null, %.lr.ph ]
  store i8 0, ptr %.04979, align 1
  %27 = tail call ptr @strrchr(ptr noundef nonnull dereferenceable(1) %11, i32 noundef 46) #13
  %28 = icmp ne ptr %27, null
  %.not60 = icmp eq ptr %.1, null
  %29 = select i1 %28, i1 %.not60, i1 false
  br i1 %29, label %.lr.ph, label %30

30:                                               ; preds = %.thread65
  tail call void @_efree(ptr noundef nonnull %11) #14
  %31 = icmp eq ptr %.1, null
  br i1 %31, label %36, label %37

.thread:                                          ; preds = %3
  %32 = load ptr, ptr %7, align 8, !nonnull !4, !noundef !4
  %33 = load ptr, ptr %32, align 8
  %34 = tail call ptr %33(ptr noundef %0, ptr noundef %1, i8 noundef zeroext %2) #14
  %35 = icmp eq ptr %34, null
  br i1 %35, label %.thread85, label %37

36:                                               ; preds = %30
  br i1 %.not61, label %.sink.split, label %.thread85

.thread85:                                        ; preds = %.thread, %36
  br label %.sink.split

.sink.split:                                      ; preds = %36, %8, %.thread90, %.thread85
  %.str.sink = phi ptr [ @.str.1, %.thread85 ], [ @.str, %.thread90 ], [ @.str, %8 ], [ @.str, %36 ]
  tail call void (ptr, i32, ptr, ...) @php_error_docref(ptr noundef null, i32 noundef 2, ptr noundef nonnull %.str.sink, ptr noundef %0) #14
  br label %37

37:                                               ; preds = %.sink.split, %.thread, %30
  %.273 = phi ptr [ %.1, %30 ], [ %34, %.thread ], [ null, %.sink.split ]
  ret ptr %.273
}